target datalayout = "e-m:e-p270:32:32-p271:32:32-p272:64:64-i64:64-i128:128-f80:128-n8:16:32:64-S128"
target triple = "x86_64-pc-linux-gnu"

%struct.DCAADPCMEncContext = type { ptr }

; Function Attrs: cold nounwind optsize uwtable
define void @ff_dcaadpcm_free(ptr noundef %0) #5 {
  %2 = alloca ptr, align 8
  store ptr %0, ptr %2, align 8, !tbaa !4
  %3 = load ptr, ptr %2, align 8, !tbaa !4
  %4 = icmp ne ptr %3, null
  br i1 %4, label %6, label %5

5:                                                ; preds = %1
  br label %9

6:                                                ; preds = %1
  %7 = load ptr, ptr %2, align 8, !tbaa !4
  %8 = getelementptr inbounds nuw %struct.DCAADPCMEncContext, ptr %7, i32 0, i32 0
  call void @av_freep(ptr noundef %8)
  br label %9

9:                                                ; preds = %6, %5
  ret void
}