; Function Attrs: cold nounwind optsize uwtable
define void @ff_dcaadpcm_free(ptr noundef %0) local_unnamed_addr #4 {
  %.not = icmp eq ptr %0, null
  br i1 %.not, label %3, label %2

2:                                                ; preds = %1
  tail call void @av_freep(ptr noundef nonnull %0) #9
  br label %3

3:                                                ; preds = %1, %2
  ret void
}